Certificate:
    Data:
        Version: 3 (0x2)
        Serial Number: 1 (0x1)
    Signature Algorithm: sha256WithRSAEncryption
        Issuer: C=US, ST=Maryland, L=Baltimore, O=Test CA, Limited, OU=Server Research Department, CN=Test CA/emailAddress=test@example.com
        Validity
            Not Before: Mar 15 19:20:12 2016 GMT
            Not After : Dec 10 19:20:12 2018 GMT
        Subject: C=US, ST=MD, L=Baltimore, O=Test CA, Limited, CN=*.yelp.com
        Subject Public Key Info:
            Public Key Algorithm: rsaEncryption
                Public-Key: (2048 bit)
                Modulus:
                    00:d4:f1:0a:25:93:e5:b0:ad:40:bd:e0:8f:91:af:
                    ab:07:23:be:91:38:b2:fd:da:28:7a:b7:ff:a5:3a:
                    54:0d:5a:58:7b:31:36:ec:86:db:b9:86:7e:6f:4f:
                    58:62:50:ce:3d:6c:b7:94:94:fa:75:66:62:49:01:
                    00:15:a2:13:4a:b5:01:1f:41:35:2e:7c:b0:3f:7f:
                    da:45:39:b7:1e:5d:25:7a:ce:4b:60:fd:43:8f:dd:
                    c4:de:b6:02:9c:72:4e:95:18:54:ac:45:ca:49:a0:
                    9c:1e:55:b4:72:f8:04:90:a9:0f:e1:46:3f:1b:9c:
                    43:65:35:2e:9b:a1:ab:ca:7a:0a:cc:93:68:9a:6f:
                    96:bb:3e:54:fb:f4:25:81:9e:2d:1f:bb:05:45:bf:
                    44:da:ba:ee:cc:93:68:e4:2d:56:2e:46:69:3f:36:
                    bd:6a:62:5c:09:12:c8:a4:11:19:e9:ed:71:01:65:
                    68:62:59:2a:1e:55:5b:c8:94:22:31:4a:57:cf:99:
                    51:9c:f9:62:d4:38:34:e8:f8:55:c7:a8:d6:c5:7a:
                    96:5e:b8:1d:d2:c0:53:f4:82:b1:8b:07:d8:e9:a8:
                    ee:78:b5:35:47:7a:d8:a0:2a:78:12:41:de:33:e6:
                    55:0e:cd:62:39:67:93:04:45:0b:41:e2:10:1b:6a:
                    94:5f
                Exponent: 65537 (0x10001)
        X509v3 extensions:
            X509v3 Subject Key Identifier: 
                AB:E2:A1:33:66:E6:42:03:FD:15:A9:B5:86:CC:C4:C8:5F:19:75:73
            X509v3 Authority Key Identifier: 
                keyid:24:8D:1B:7B:4D:31:F5:88:F4:C6:63:2F:2B:5C:FE:A1:71:AD:E6:B3

            X509v3 Basic Constraints: 
                CA:FALSE
            X509v3 Key Usage: 
                Digital Signature, Key Encipherment
            X509v3 Subject Alternative Name: 
                DNS:example.com, DNS:www.example.com, DNS:mail.example.com, DNS:ftp.example.com
            Netscape Comment: 
                OpenSSL Generated Certificate
    Signature Algorithm: sha256WithRSAEncryption
         28:ad:eb:ff:79:8f:da:7e:65:bd:ad:19:3c:39:44:60:e4:96:
         1b:b0:ad:3b:e3:23:97:9e:11:b4:d0:c9:86:03:34:d2:41:9a:
         0a:4a:c0:5a:4e:b1:d4:3b:6d:86:d0:1e:76:21:61:5e:e5:89:
         0a:26:3f:55:e2:a5:9b:8c:3f:dd:74:c0:59:f8:ad:e8:ee:f3:
         58:8f:2a:d4:f4:cb:22:99:57:8f:ee:83:2a:7c:52:9f:e2:02:
         19:7f:59:46:c2:9b:e2:e2:bc:ee:0d:9d:b3:90:cc:44:97:53:
         3d:02:21:9f:4b:e0:2b:fe:82:8b:39:10:4d:05:4b:6f:95:00:
         61:df:cc:87:da:3c:8a:32:43:67:60:86:e8:47:ce:81:f4:63:
         e5:e9:c2:6e:f5:78:41:9d:a0:dc:a4:42:94:65:4c:8a:4e:02:
         44:65:47:e3:16:40:3c:1b:d9:b0:cb:39:2c:22:ef:78:c5:a1:
         fa:5e:19:46:42:8c:95:5d:1d:7b:bd:41:bd:b8:17:9e:0e:af:
         5a:c5:54:13:d1:5b:5a:c8:fc:7c:59:a3:11:6f:0c:43:55:7c:
         21:66:2e:a0:79:95:dc:66:3d:0d:ea:be:35:6d:b2:5e:01:c4:
         6e:80:bd:f8:d0:ff:68:d1:a6:4e:e1:9d:8f:31:84:e5:78:e0:
         96:2e:10:4d:a3:59:96:45:39:3d:d4:03:25:37:b7:b9:20:7d:
         d2:bd:d9:63:bc:a3:81:14:cb:61:41:95:b1:c9:62:a2:98:7b:
         59:2b:57:b0:b2:a6:f8:a7:74:3b:ef:1d:e6:04:05:8d:3c:95:
         c2:d9:4a:d9:32:de:5c:5a:53:48:e2:d7:a7:34:a8:15:37:89:
         7a:47:86:fd:24:c8:dd:21:1b:89:dc:ec:6c:8b:7f:4b:f7:8c:
         0b:3e:79:dc:65:c5:2e:7b:eb:3c:db:ac:3a:3c:4b:a7:91:a4:
         c6:cc:4b:ff:2c:5f:cc:01:7e:f3:29:84:f6:0f:9a:f2:2e:61:
         21:31:21:38:fc:10:e0:7e:03:fd:ad:5f:31:a5:cd:89:2e:96:
         64:94:be:98:34:5b:6a:58:42:52:b2:77:ef:44:df:fa:a5:bf:
         a4:6b:c8:a6:f0:ca:9d:f2:6d:fe:c6:e5:3e:1e:4e:be:46:ea:
         ba:d6:b6:91:ea:55:cd:6e:84:be:05:4c:a4:73:57:26:a1:a5:
         f0:10:7c:3c:3b:da:06:a1:8e:83:ba:90:2b:23:63:f5:3d:e8:
         c5:d0:da:2c:87:e8:a1:ab:7d:e5:42:e1:4c:40:7d:a9:58:6d:
         c4:b9:c6:24:d2:93:eb:71:ff:7b:37:13:20:4b:4a:f1:08:27:
         05:d8:ae:1c:07:ac:3a:23
-----BEGIN CERTIFICATE-----
MIIFVzCCAz+gAwIBAgIBATANBgkqhkiG9w0BAQsFADCBpzELMAkGA1UEBhMCVVMx
ETAPBgNVBAgMCE1hcnlsYW5kMRIwEAYDVQQHDAlCYWx0aW1vcmUxGTAXBgNVBAoM
EFRlc3QgQ0EsIExpbWl0ZWQxIzAhBgNVBAsMGlNlcnZlciBSZXNlYXJjaCBEZXBh
cnRtZW50MRAwDgYDVQQDDAdUZXN0IENBMR8wHQYJKoZIhvcNAQkBFhB0ZXN0QGV4
YW1wbGUuY29tMB4XDTE2MDMxNTE5MjAxMloXDTE4MTIxMDE5MjAxMlowXjELMAkG
A1UEBhMCVVMxCzAJBgNVBAgMAk1EMRIwEAYDVQQHDAlCYWx0aW1vcmUxGTAXBgNV
BAoMEFRlc3QgQ0EsIExpbWl0ZWQxEzARBgNVBAMMCioueWVscC5jb20wggEiMA0G
CSqGSIb3DQEBAQUAA4IBDwAwggEKAoIBAQDU8Qolk+WwrUC94I+Rr6sHI76ROLL9
2ih6t/+lOlQNWlh7MTbshtu5hn5vT1hiUM49bLeUlPp1ZmJJAQAVohNKtQEfQTUu
fLA/f9pFObceXSV6zktg/UOP3cTetgKcck6VGFSsRcpJoJweVbRy+ASQqQ/hRj8b
nENlNS6boavKegrMk2iab5a7PlT79CWBni0fuwVFv0Tauu7Mk2jkLVYuRmk/Nr1q
YlwJEsikERnp7XEBZWhiWSoeVVvIlCIxSlfPmVGc+WLUODTo+FXHqNbFepZeuB3S
wFP0grGLB9jpqO54tTVHetigKngSQd4z5lUOzWI5Z5MERQtB4hAbapRfAgMBAAGj
gdUwgdIwHQYDVR0OBBYEFKvioTNm5kID/RWptYbMxMhfGXVzMB8GA1UdIwQYMBaA
FCSNG3tNMfWI9MZjLytc/qFxreazMAkGA1UdEwQCMAAwCwYDVR0PBAQDAgWgMEoG
A1UdEQRDMEGCC2V4YW1wbGUuY29tgg93d3cuZXhhbXBsZS5jb22CEG1haWwuZXhh
bXBsZS5jb22CD2Z0cC5leGFtcGxlLmNvbTAsBglghkgBhvhCAQ0EHxYdT3BlblNT
TCBHZW5lcmF0ZWQgQ2VydGlmaWNhdGUwDQYJKoZIhvcNAQELBQADggIBACit6/95
j9p+Zb2tGTw5RGDklhuwrTvjI5eeEbTQyYYDNNJBmgpKwFpOsdQ7bYbQHnYhYV7l
iQomP1XipZuMP910wFn4reju81iPKtT0yyKZV4/ugyp8Up/iAhl/WUbCm+LivO4N
nbOQzESXUz0CIZ9L4Cv+gos5EE0FS2+VAGHfzIfaPIoyQ2dghuhHzoH0Y+Xpwm71
eEGdoNykQpRlTIpOAkRlR+MWQDwb2bDLOSwi73jFofpeGUZCjJVdHXu9Qb24F54O
r1rFVBPRW1rI/HxZoxFvDENVfCFmLqB5ldxmPQ3qvjVtsl4BxG6AvfjQ/2jRpk7h
nY8xhOV44JYuEE2jWZZFOT3UAyU3t7kgfdK92WO8o4EUy2FBlbHJYqKYe1krV7Cy
pvindDvvHeYEBY08lcLZStky3lxaU0ji16c0qBU3iXpHhv0kyN0hG4nc7GyLf0v3
jAs+edxlxS576zzbrDo8S6eRpMbMS/8sX8wBfvMphPYPmvIuYSExITj8EOB+A/2t
XzGlzYkulmSUvpg0W2pYQlKyd+9E3/qlv6RryKbwyp3ybf7G5T4eTr5G6rrWtpHq
Vc1uhL4FTKRzVyahpfAQfDw72gahjoO6kCsjY/U96MXQ2iyH6KGrfeVC4UxAfalY
bcS5xiTSk+tx/3s3EyBLSvEIJwXYrhwHrDoj
-----END CERTIFICATE-----
