Certificate:
    Data:
        Version: 3 (0x2)
        Serial Number: 15 (0xf)
    Signature Algorithm: sha256WithRSAEncryption
        Issuer: C=US, ST=Maryland, L=Baltimore, O=Test CA, Limited, OU=Server Research Department, CN=Test CA/emailAddress=test@example.com
        Validity
            Not Before: Mar 16 05:07:09 2016 GMT
            Not After : Dec 11 05:07:09 2018 GMT
        Subject: C=US, ST=MD, L=Baltimore, O=Test CA, Limited, CN=*.periscope.tv
        Subject Public Key Info:
            Public Key Algorithm: rsaEncryption
                Public-Key: (2048 bit)
                Modulus:
                    00:b3:61:ad:0e:d6:81:9a:a0:02:cf:0e:91:08:99:
                    c0:05:13:ae:3a:b1:9d:c2:32:69:3c:f3:3d:e2:c3:
                    71:e1:17:ff:7b:1f:61:4c:cc:b5:dc:ef:56:b9:24:
                    6b:1e:52:6f:74:37:ce:8b:72:3a:03:48:ec:08:7c:
                    c6:73:01:12:5a:01:7c:32:ff:d9:cc:6e:88:c5:68:
                    3d:0e:ef:c6:67:87:7c:18:6f:52:a9:c4:f5:a1:2c:
                    3a:f0:1f:28:05:17:48:8c:0a:71:06:ca:3f:90:44:
                    f8:78:13:9b:03:ea:cc:8c:e1:f9:8a:82:45:db:4f:
                    81:b6:01:ad:23:11:de:2d:64:30:36:86:2b:d6:66:
                    45:03:88:af:c1:01:ec:35:ae:4c:b8:39:4f:3e:d4:
                    4b:95:fe:24:e3:76:26:d8:f4:ac:76:68:23:1e:cc:
                    d1:7d:f3:14:6a:1c:0d:b5:32:1f:13:a9:40:50:1b:
                    12:a8:b3:2b:b0:80:a2:2a:37:c9:7c:86:e6:da:bb:
                    5a:3f:aa:a6:5b:14:49:08:65:90:d0:71:5a:4a:d2:
                    11:c2:d6:d4:3c:77:c0:5c:53:7d:69:37:86:db:18:
                    fa:9c:e7:c6:0e:87:4d:82:2f:50:5a:fd:53:b9:58:
                    0f:fd:49:09:ac:66:cf:21:00:8c:a7:27:d6:63:11:
                    92:21
                Exponent: 65537 (0x10001)
        X509v3 extensions:
            X509v3 Subject Key Identifier: 
                0C:45:A3:D0:E1:4B:24:6F:1D:58:5F:A3:A5:2F:19:0C:5A:B4:B4:90
            X509v3 Authority Key Identifier: 
                keyid:24:8D:1B:7B:4D:31:F5:88:F4:C6:63:2F:2B:5C:FE:A1:71:AD:E6:B3

            X509v3 Basic Constraints: 
                CA:FALSE
            X509v3 Key Usage: 
                Digital Signature, Key Encipherment
            X509v3 Subject Alternative Name: 
                DNS:*.flic.kr, DNS:*.yahoo.com, DNS:*.yelp.com, DNS:*.flickr.com, DNS:*.yimg.com, DNS:*.ec.yimg.com
            Netscape Comment: 
                OpenSSL Generated Certificate
    Signature Algorithm: sha256WithRSAEncryption
         29:0c:55:ca:07:90:8e:e6:c7:0b:6e:30:de:26:c0:89:fc:45:
         21:f9:05:66:83:ea:d4:a1:91:d1:4e:a2:45:74:9f:fe:99:3f:
         7b:2d:71:2f:78:71:3a:58:16:d0:34:d6:5c:09:96:b2:5d:9a:
         f4:e3:27:b6:f6:5f:f4:ee:fd:1b:77:b3:3b:fe:05:61:ee:c0:
         73:f6:6f:15:a3:ca:84:4f:8e:b2:80:54:a0:84:de:0a:b8:a1:
         9a:35:33:7d:16:f9:5f:8c:64:cf:32:9a:23:f5:a4:93:b2:1f:
         68:01:5a:6f:5d:15:e3:67:21:4f:d8:27:f1:fd:7c:0c:57:cd:
         73:d2:19:35:22:b8:dd:02:ab:55:55:12:a1:63:54:a6:7b:62:
         2a:38:9e:b4:e3:64:ad:d6:e5:ba:d8:03:b0:21:97:74:01:13:
         77:99:6b:fe:e5:ab:69:6b:fc:b9:c5:c0:b9:ec:a1:0b:c9:16:
         b2:80:cd:08:8e:b5:4d:f1:30:ef:a6:22:4b:f5:a0:1e:92:3e:
         f5:f2:b8:d0:66:eb:d8:e7:79:44:33:3b:bc:70:13:9d:51:70:
         66:3e:0a:a4:5b:6e:cd:a9:da:0b:d6:ec:b4:98:7e:24:36:0e:
         95:3b:d4:cd:99:a1:63:82:95:cf:97:bd:94:a7:10:19:cb:06:
         a0:ad:3d:db:ad:bb:c4:27:c0:8b:8e:6e:57:bd:0d:04:5c:6b:
         61:7e:fd:00:42:78:17:c1:82:85:f1:1e:79:a7:3f:43:0d:81:
         f4:93:95:96:95:8b:36:0b:a2:57:96:26:7a:32:56:ae:5e:48:
         04:0e:d5:3f:5d:7e:91:4b:18:9d:a1:6e:02:58:7c:61:0d:bc:
         45:34:f8:21:66:a7:be:b3:99:42:87:da:01:dd:ec:91:1d:b7:
         51:f6:d3:c6:20:04:51:ec:ec:74:8b:06:f2:77:b6:d1:54:82:
         6a:d1:9e:e9:e1:0f:9d:cf:c8:66:f1:7f:90:fa:97:8b:7f:22:
         72:68:64:b0:3e:c9:49:83:2d:5e:e1:51:e2:7b:80:e0:36:3e:
         b3:fb:94:b8:96:51:cd:a0:6d:eb:8d:1f:83:ce:ff:39:eb:7e:
         66:5c:65:bb:aa:b6:27:d2:bc:fa:c6:c8:4d:b6:c3:55:00:dc:
         02:9d:70:fa:19:1e:a9:3c:3a:ee:62:82:6a:99:1f:dd:7d:ca:
         aa:9d:7d:ca:a8:7a:b5:68:96:4c:b2:4b:2f:08:be:dc:01:34:
         dc:4a:75:4e:8b:af:7f:33:a0:98:be:6e:f3:df:6d:81:ac:29:
         86:99:82:ed:17:30:54:2b:ad:88:91:fe:54:71:d9:de:6f:01:
         ca:5e:a6:5c:28:9f:3e:cc
-----BEGIN CERTIFICATE-----
MIIFZzCCA0+gAwIBAgIBDzANBgkqhkiG9w0BAQsFADCBpzELMAkGA1UEBhMCVVMx
ETAPBgNVBAgMCE1hcnlsYW5kMRIwEAYDVQQHDAlCYWx0aW1vcmUxGTAXBgNVBAoM
EFRlc3QgQ0EsIExpbWl0ZWQxIzAhBgNVBAsMGlNlcnZlciBSZXNlYXJjaCBEZXBh
cnRtZW50MRAwDgYDVQQDDAdUZXN0IENBMR8wHQYJKoZIhvcNAQkBFhB0ZXN0QGV4
YW1wbGUuY29tMB4XDTE2MDMxNjA1MDcwOVoXDTE4MTIxMTA1MDcwOVowYjELMAkG
A1UEBhMCVVMxCzAJBgNVBAgMAk1EMRIwEAYDVQQHDAlCYWx0aW1vcmUxGTAXBgNV
BAoMEFRlc3QgQ0EsIExpbWl0ZWQxFzAVBgNVBAMMDioucGVyaXNjb3BlLnR2MIIB
IjANBgkqhkiG9w0BAQEFAAOCAQ8AMIIBCgKCAQEAs2GtDtaBmqACzw6RCJnABROu
OrGdwjJpPPM94sNx4Rf/ex9hTMy13O9WuSRrHlJvdDfOi3I6A0jsCHzGcwESWgF8
Mv/ZzG6IxWg9Du/GZ4d8GG9SqcT1oSw68B8oBRdIjApxBso/kET4eBObA+rMjOH5
ioJF20+BtgGtIxHeLWQwNoYr1mZFA4ivwQHsNa5MuDlPPtRLlf4k43Ym2PSsdmgj
HszRffMUahwNtTIfE6lAUBsSqLMrsICiKjfJfIbm2rtaP6qmWxRJCGWQ0HFaStIR
wtbUPHfAXFN9aTeG2xj6nOfGDodNgi9QWv1TuVgP/UkJrGbPIQCMpyfWYxGSIQID
AQABo4HhMIHeMB0GA1UdDgQWBBQMRaPQ4Uskbx1YX6OlLxkMWrS0kDAfBgNVHSME
GDAWgBQkjRt7TTH1iPTGYy8rXP6hca3mszAJBgNVHRMEAjAAMAsGA1UdDwQEAwIF
oDBWBgNVHREETzBNggkqLmZsaWMua3KCCyoueWFob28uY29tggoqLnllbHAuY29t
ggwqLmZsaWNrci5jb22CCioueWltZy5jb22CDSouZWMueWltZy5jb20wLAYJYIZI
AYb4QgENBB8WHU9wZW5TU0wgR2VuZXJhdGVkIENlcnRpZmljYXRlMA0GCSqGSIb3
DQEBCwUAA4ICAQApDFXKB5CO5scLbjDeJsCJ/EUh+QVmg+rUoZHRTqJFdJ/+mT97
LXEveHE6WBbQNNZcCZayXZr04ye29l/07v0bd7M7/gVh7sBz9m8Vo8qET46ygFSg
hN4KuKGaNTN9FvlfjGTPMpoj9aSTsh9oAVpvXRXjZyFP2Cfx/XwMV81z0hk1Irjd
AqtVVRKhY1Sme2IqOJ6042St1uW62AOwIZd0ARN3mWv+5atpa/y5xcC57KELyRay
gM0IjrVN8TDvpiJL9aAekj718rjQZuvY53lEMzu8cBOdUXBmPgqkW27NqdoL1uy0
mH4kNg6VO9TNmaFjgpXPl72UpxAZywagrT3brbvEJ8CLjm5XvQ0EXGthfv0AQngX
wYKF8R55pz9DDYH0k5WWlYs2C6JXliZ6MlauXkgEDtU/XX6RSxidoW4CWHxhDbxF
NPghZqe+s5lCh9oB3eyRHbdR9tPGIARR7Ox0iwbyd7bRVIJq0Z7p4Q+dz8hm8X+Q
+peLfyJyaGSwPslJgy1e4VHie4DgNj6z+5S4llHNoG3rjR+Dzv85635mXGW7qrYn
0rz6xshNtsNVANwCnXD6GR6pPDruYoJqmR/dfcqqnX3KqHq1aJZMsksvCL7cATTc
SnVOi69/M6CYvm7z322BrCmGmYLtFzBUK62Ikf5UcdnebwHKXqZcKJ8+zA==
-----END CERTIFICATE-----
